target datalayout = "e-m:e-p270:32:32-p271:32:32-p272:64:64-i64:64-i128:128-f80:128-n8:16:32:64-S128"
target triple = "x86_64-pc-linux-gnu"

@hf_fmp_fmpFHandle = internal global i32 0, align 4
@hf_fmp_nfsFHandle = internal global i32 0, align 4
@hf_fmp_mount_path = internal global i32 0, align 4
@hf_fmp_path = internal global i32 0, align 4
@hf_fmp_native_protocol = internal global i32 0, align 4
@hf_fmp_encoding_mode = internal global i32 0, align 4
@hf_fmp_fid = internal global i32 0, align 4
@hf_fmp_tid = internal global i32 0, align 4
@hf_fmp_uid = internal global i32 0, align 4
@hf_fmp_fsid = internal global i32 0, align 4
@hf_fmp_cifsport = internal global i32 0, align 4
@ett_fmp_fileHandle = internal global i32 0, align 4
@.str.282 = private unnamed_addr constant [19 x i8] c"Source File Handle\00", align 1

; Function Attrs: null_pointer_is_valid sspstrong uwtable
define internal i32 @dissect_fmp_genString(ptr noundef %0, i32 noundef %1, ptr noundef %2) #0 {
  %4 = alloca i32, align 4
  %5 = alloca ptr, align 8
  %6 = alloca i32, align 4
  %7 = alloca ptr, align 8
  store ptr %0, ptr %5, align 8
  store i32 %1, ptr %6, align 4
  store ptr %2, ptr %7, align 8
  %8 = load ptr, ptr %7, align 8
  %9 = load i32, ptr @hf_fmp_encoding_mode, align 4
  %10 = load ptr, ptr %5, align 8
  %11 = load i32, ptr %6, align 4
  %12 = call ptr @proto_tree_add_item(ptr noundef %8, i32 noundef %9, ptr noundef %10, i32 noundef %11, i32 noundef 4, i32 noundef 0)
  %13 = load i32, ptr %6, align 4
  %14 = add i32 %13, 4
  store i32 %14, ptr %6, align 4
  %15 = load ptr, ptr %5, align 8
  %16 = load i32, ptr %6, align 4
  %17 = call i32 @tvb_get_ntohl(ptr noundef %15, i32 noundef %16)
  %18 = call ptr @try_val_to_str(i32 noundef %17, ptr noundef @fmp_encoding_mode_vals)
  %19 = icmp eq ptr %18, null
  br i1 %19, label %20, label %22

20:                                               ; preds = %3
  %21 = load i32, ptr %6, align 4
  store i32 %21, ptr %4, align 4
  br label %29

22:                                               ; preds = %3
  %23 = load ptr, ptr %5, align 8
  %24 = load ptr, ptr %7, align 8
  %25 = load i32, ptr @hf_fmp_path, align 4
  %26 = load i32, ptr %6, align 4
  %27 = call i32 @dissect_rpc_string(ptr noundef %23, ptr noundef %24, i32 noundef %25, i32 noundef %26, ptr noundef null)
  store i32 %27, ptr %6, align 4
  %28 = load i32, ptr %6, align 4
  store i32 %28, ptr %4, align 4
  br label %29

29:                                               ; preds = %22, %20
  %30 = load i32, ptr %4, align 4
  ret i32 %30
}

; Function Attrs: null_pointer_is_valid sspstrong uwtable
define internal i32 @get_fileHandleSrc_size(ptr noundef %0, i32 noundef %1) #0 {
  %3 = alloca ptr, align 8
  %4 = alloca i32, align 4
  %5 = alloca i32, align 4
  %6 = alloca i32, align 4
  store ptr %0, ptr %3, align 8
  store i32 %1, ptr %4, align 4
  call void @llvm.lifetime.start.p0(i64 4, ptr %5) #4
  call void @llvm.lifetime.start.p0(i64 4, ptr %6) #4
  %7 = load ptr, ptr %3, align 8
  %8 = load i32, ptr %4, align 4
  %9 = call i32 @tvb_get_ntohl(ptr noundef %7, i32 noundef %8)
  store i32 %9, ptr %6, align 4
  %10 = load i32, ptr %6, align 4
  switch i32 %10, label %27 [
    i32 0, label %11
    i32 1, label %12
    i32 2, label %18
    i32 3, label %19
    i32 4, label %25
    i32 5, label %26
    i32 6, label %26
  ]

11:                                               ; preds = %2
  store i32 1028, ptr %5, align 4
  br label %28

12:                                               ; preds = %2
  %13 = load ptr, ptr %3, align 8
  %14 = load i32, ptr %4, align 4
  %15 = add i32 %14, 4
  %16 = call i32 @tvb_get_ntohl(ptr noundef %13, i32 noundef %15)
  %17 = add i32 8, %16
  store i32 %17, ptr %5, align 4
  br label %28

18:                                               ; preds = %2
  store i32 10, ptr %5, align 4
  br label %28

19:                                               ; preds = %2
  %20 = load ptr, ptr %3, align 8
  %21 = load i32, ptr %4, align 4
  %22 = add i32 %21, 4
  %23 = call i32 @tvb_get_ntohl(ptr noundef %20, i32 noundef %22)
  %24 = add i32 8, %23
  store i32 %24, ptr %5, align 4
  br label %28

25:                                               ; preds = %2
  store i32 8, ptr %5, align 4
  br label %28

26:                                               ; preds = %2, %2
  store i32 1032, ptr %5, align 4
  br label %28

27:                                               ; preds = %2
  store i32 4, ptr %5, align 4
  br label %28

28:                                               ; preds = %27, %26, %25, %19, %18, %12, %11
  %29 = load i32, ptr %5, align 4
  call void @llvm.lifetime.end.p0(i64 4, ptr %6) #4
  call void @llvm.lifetime.end.p0(i64 4, ptr %5) #4
  ret i32 %29
}

; Function Attrs: null_pointer_is_valid sspstrong uwtable
define internal i32 @dissect_fmp_fileHandleSrc(ptr noundef %0, i32 noundef %1, ptr noundef %2, ptr noundef %3) #0 {
  %5 = alloca ptr, align 8
  %6 = alloca i32, align 4
  %7 = alloca ptr, align 8
  %8 = alloca ptr, align 8
  %9 = alloca i32, align 4
  %10 = alloca ptr, align 8
  %11 = alloca i32, align 4
  store ptr %0, ptr %5, align 8
  store i32 %1, ptr %6, align 4
  store ptr %2, ptr %7, align 8
  store ptr %3, ptr %8, align 8
  call void @llvm.lifetime.start.p0(i64 4, ptr %9) #4
  call void @llvm.lifetime.start.p0(i64 8, ptr %10) #4
  call void @llvm.lifetime.start.p0(i64 4, ptr %11) #4
  %12 = load ptr, ptr %5, align 8
  %13 = load i32, ptr %6, align 4
  %14 = call i32 @get_fileHandleSrc_size(ptr noundef %12, i32 noundef %13)
  store i32 %14, ptr %11, align 4
  %15 = load ptr, ptr %8, align 8
  %16 = load ptr, ptr %5, align 8
  %17 = load i32, ptr %6, align 4
  %18 = load i32, ptr %11, align 4
  %19 = load i32, ptr @ett_fmp_fileHandle, align 4
  %20 = call ptr @proto_tree_add_subtree(ptr noundef %15, ptr noundef %16, i32 noundef %17, i32 noundef %18, i32 noundef %19, ptr noundef null, ptr noundef @.str.282)
  store ptr %20, ptr %10, align 8
  %21 = load ptr, ptr %5, align 8
  %22 = load i32, ptr %6, align 4
  %23 = call i32 @tvb_get_ntohl(ptr noundef %21, i32 noundef %22)
  store i32 %23, ptr %9, align 4
  %24 = load ptr, ptr %10, align 8
  %25 = load i32, ptr @hf_fmp_native_protocol, align 4
  %26 = load ptr, ptr %5, align 8
  %27 = load i32, ptr %6, align 4
  %28 = call ptr @proto_tree_add_item(ptr noundef %24, i32 noundef %25, ptr noundef %26, i32 noundef %27, i32 noundef 4, i32 noundef 0)
  %29 = load i32, ptr %6, align 4
  %30 = add i32 %29, 4
  store i32 %30, ptr %6, align 4
  %31 = load i32, ptr %9, align 4
  switch i32 %31, label %124 [
    i32 0, label %32
    i32 1, label %38
    i32 2, label %44
    i32 3, label %66
    i32 4, label %72
    i32 5, label %80
    i32 6, label %85
    i32 7, label %90
    i32 8, label %119
  ]

32:                                               ; preds = %4
  %33 = load ptr, ptr %5, align 8
  %34 = load ptr, ptr %10, align 8
  %35 = load i32, ptr @hf_fmp_mount_path, align 4
  %36 = load i32, ptr %6, align 4
  %37 = call i32 @dissect_rpc_string(ptr noundef %33, ptr noundef %34, i32 noundef %35, i32 noundef %36, ptr noundef null)
  store i32 %37, ptr %6, align 4
  br label %125

38:                                               ; preds = %4
  %39 = load ptr, ptr %5, align 8
  %40 = load ptr, ptr %10, align 8
  %41 = load i32, ptr @hf_fmp_nfsFHandle, align 4
  %42 = load i32, ptr %6, align 4
  %43 = call i32 @dissect_rpc_data(ptr noundef %39, ptr noundef %40, i32 noundef %41, i32 noundef %42)
  store i32 %43, ptr %6, align 4
  br label %125

44:                                               ; preds = %4
  %45 = load ptr, ptr %10, align 8
  %46 = load i32, ptr @hf_fmp_fid, align 4
  %47 = load ptr, ptr %5, align 8
  %48 = load i32, ptr %6, align 4
  %49 = call ptr @proto_tree_add_item(ptr noundef %45, i32 noundef %46, ptr noundef %47, i32 noundef %48, i32 noundef 2, i32 noundef 0)
  %50 = load i32, ptr %6, align 4
  %51 = add i32 %50, 2
  store i32 %51, ptr %6, align 4
  %52 = load ptr, ptr %10, align 8
  %53 = load i32, ptr @hf_fmp_tid, align 4
  %54 = load ptr, ptr %5, align 8
  %55 = load i32, ptr %6, align 4
  %56 = call ptr @proto_tree_add_item(ptr noundef %52, i32 noundef %53, ptr noundef %54, i32 noundef %55, i32 noundef 2, i32 noundef 0)
  %57 = load i32, ptr %6, align 4
  %58 = add i32 %57, 2
  store i32 %58, ptr %6, align 4
  %59 = load ptr, ptr %10, align 8
  %60 = load i32, ptr @hf_fmp_uid, align 4
  %61 = load ptr, ptr %5, align 8
  %62 = load i32, ptr %6, align 4
  %63 = call ptr @proto_tree_add_item(ptr noundef %59, i32 noundef %60, ptr noundef %61, i32 noundef %62, i32 noundef 2, i32 noundef 0)
  %64 = load i32, ptr %6, align 4
  %65 = add i32 %64, 2
  store i32 %65, ptr %6, align 4
  br label %125

66:                                               ; preds = %4
  %67 = load ptr, ptr %5, align 8
  %68 = load ptr, ptr %10, align 8
  %69 = load i32, ptr @hf_fmp_fmpFHandle, align 4
  %70 = load i32, ptr %6, align 4
  %71 = call i32 @dissect_rpc_string(ptr noundef %67, ptr noundef %68, i32 noundef %69, i32 noundef %70, ptr noundef null)
  store i32 %71, ptr %6, align 4
  br label %125

72:                                               ; preds = %4
  %73 = load ptr, ptr %10, align 8
  %74 = load i32, ptr @hf_fmp_fsid, align 4
  %75 = load ptr, ptr %5, align 8
  %76 = load i32, ptr %6, align 4
  %77 = call ptr @proto_tree_add_item(ptr noundef %73, i32 noundef %74, ptr noundef %75, i32 noundef %76, i32 noundef 4, i32 noundef 0)
  %78 = load i32, ptr %6, align 4
  %79 = add i32 %78, 4
  store i32 %79, ptr %6, align 4
  br label %125

80:                                               ; preds = %4
  %81 = load ptr, ptr %5, align 8
  %82 = load i32, ptr %6, align 4
  %83 = load ptr, ptr %10, align 8
  %84 = call i32 @dissect_fmp_genString(ptr noundef %81, i32 noundef %82, ptr noundef %83)
  store i32 %84, ptr %6, align 4
  br label %125

85:                                               ; preds = %4
  %86 = load ptr, ptr %5, align 8
  %87 = load i32, ptr %6, align 4
  %88 = load ptr, ptr %10, align 8
  %89 = call i32 @dissect_fmp_genString(ptr noundef %86, i32 noundef %87, ptr noundef %88)
  store i32 %89, ptr %6, align 4
  br label %125

90:                                               ; preds = %4
  %91 = load ptr, ptr %10, align 8
  %92 = load i32, ptr @hf_fmp_fid, align 4
  %93 = load ptr, ptr %5, align 8
  %94 = load i32, ptr %6, align 4
  %95 = call ptr @proto_tree_add_item(ptr noundef %91, i32 noundef %92, ptr noundef %93, i32 noundef %94, i32 noundef 2, i32 noundef 0)
  %96 = load i32, ptr %6, align 4
  %97 = add i32 %96, 2
  store i32 %97, ptr %6, align 4
  %98 = load ptr, ptr %10, align 8
  %99 = load i32, ptr @hf_fmp_tid, align 4
  %100 = load ptr, ptr %5, align 8
  %101 = load i32, ptr %6, align 4
  %102 = call ptr @proto_tree_add_item(ptr noundef %98, i32 noundef %99, ptr noundef %100, i32 noundef %101, i32 noundef 2, i32 noundef 0)
  %103 = load i32, ptr %6, align 4
  %104 = add i32 %103, 2
  store i32 %104, ptr %6, align 4
  %105 = load ptr, ptr %10, align 8
  %106 = load i32, ptr @hf_fmp_uid, align 4
  %107 = load ptr, ptr %5, align 8
  %108 = load i32, ptr %6, align 4
  %109 = call ptr @proto_tree_add_item(ptr noundef %105, i32 noundef %106, ptr noundef %107, i32 noundef %108, i32 noundef 2, i32 noundef 0)
  %110 = load i32, ptr %6, align 4
  %111 = add i32 %110, 2
  store i32 %111, ptr %6, align 4
  %112 = load ptr, ptr %10, align 8
  %113 = load i32, ptr @hf_fmp_cifsport, align 4
  %114 = load ptr, ptr %5, align 8
  %115 = load i32, ptr %6, align 4
  %116 = call ptr @proto_tree_add_item(ptr noundef %112, i32 noundef %113, ptr noundef %114, i32 noundef %115, i32 noundef 2, i32 noundef 0)
  %117 = load i32, ptr %6, align 4
  %118 = add i32 %117, 2
  store i32 %118, ptr %6, align 4
  br label %125

119:                                              ; preds = %4
  %120 = load ptr, ptr %5, align 8
  %121 = load i32, ptr %6, align 4
  %122 = load ptr, ptr %10, align 8
  %123 = call i32 @dissect_fmp_genString(ptr noundef %120, i32 noundef %121, ptr noundef %122)
  store i32 %123, ptr %6, align 4
  br label %125

124:                                              ; preds = %4
  br label %125

125:                                              ; preds = %124, %119, %90, %85, %80, %72, %66, %44, %38, %32
  %126 = load i32, ptr %6, align 4
  call void @llvm.lifetime.end.p0(i64 4, ptr %11) #4
  call void @llvm.lifetime.end.p0(i64 8, ptr %10) #4
  call void @llvm.lifetime.end.p0(i64 4, ptr %9) #4
  ret i32 %126
}