; Function Attrs: null_pointer_is_valid sspstrong uwtable
define internal fastcc i32 @dissect_fmp_fileHandleSrc(ptr noundef %0, i32 noundef %1, ptr noundef %2) unnamed_addr #0 {
  %4 = tail call i32 @tvb_get_ntohl(ptr noundef %0, i32 noundef %1)
  switch i32 %4, label %16 [
    i32 0, label %get_fileHandleSrc_size.exit
    i32 1, label %5
    i32 2, label %9
    i32 3, label %10
    i32 4, label %14
    i32 5, label %15
    i32 6, label %15
  ]

5:                                                ; preds = %3
  %6 = add i32 %1, 4
  %7 = tail call i32 @tvb_get_ntohl(ptr noundef %0, i32 noundef %6)
  %8 = add i32 %7, 8
  br label %get_fileHandleSrc_size.exit

9:                                                ; preds = %3
  br label %get_fileHandleSrc_size.exit

10:                                               ; preds = %3
  %11 = add i32 %1, 4
  %12 = tail call i32 @tvb_get_ntohl(ptr noundef %0, i32 noundef %11)
  %13 = add i32 %12, 8
  br label %get_fileHandleSrc_size.exit

14:                                               ; preds = %3
  br label %get_fileHandleSrc_size.exit

15:                                               ; preds = %3, %3
  br label %get_fileHandleSrc_size.exit

16:                                               ; preds = %3
  br label %get_fileHandleSrc_size.exit

get_fileHandleSrc_size.exit:                      ; preds = %3, %5, %9, %10, %14, %15, %16
  %.0.i = phi i32 [ 4, %16 ], [ 1032, %15 ], [ 8, %14 ], [ %13, %10 ], [ 10, %9 ], [ %8, %5 ], [ 1028, %3 ]
  %17 = load i32, ptr @ett_fmp_fileHandle, align 4
  %18 = tail call ptr @proto_tree_add_subtree(ptr noundef %2, ptr noundef %0, i32 noundef %1, i32 noundef %.0.i, i32 noundef %17, ptr noundef null, ptr noundef nonnull @.str.282)
  %19 = tail call i32 @tvb_get_ntohl(ptr noundef %0, i32 noundef %1)
  %20 = load i32, ptr @hf_fmp_native_protocol, align 4
  %21 = tail call ptr @proto_tree_add_item(ptr noundef %18, i32 noundef %20, ptr noundef %0, i32 noundef %1, i32 noundef 4, i32 noundef 0)
  %22 = add i32 %1, 4
  switch i32 %19, label %dissect_fmp_genString.exit [
    i32 0, label %23
    i32 1, label %26
    i32 2, label %29
    i32 3, label %39
    i32 4, label %42
    i32 5, label %46
    i32 6, label %56
    i32 7, label %66
    i32 8, label %79
  ]

23:                                               ; preds = %get_fileHandleSrc_size.exit
  %24 = load i32, ptr @hf_fmp_mount_path, align 4
  %25 = tail call i32 @dissect_rpc_string(ptr noundef %0, ptr noundef %18, i32 noundef %24, i32 noundef %22, ptr noundef null)
  br label %dissect_fmp_genString.exit

26:                                               ; preds = %get_fileHandleSrc_size.exit
  %27 = load i32, ptr @hf_fmp_nfsFHandle, align 4
  %28 = tail call i32 @dissect_rpc_data(ptr noundef %0, ptr noundef %18, i32 noundef %27, i32 noundef %22)
  br label %dissect_fmp_genString.exit

29:                                               ; preds = %get_fileHandleSrc_size.exit
  %30 = load i32, ptr @hf_fmp_fid, align 4
  %31 = tail call ptr @proto_tree_add_item(ptr noundef %18, i32 noundef %30, ptr noundef %0, i32 noundef %22, i32 noundef 2, i32 noundef 0)
  %32 = add i32 %1, 6
  %33 = load i32, ptr @hf_fmp_tid, align 4
  %34 = tail call ptr @proto_tree_add_item(ptr noundef %18, i32 noundef %33, ptr noundef %0, i32 noundef %32, i32 noundef 2, i32 noundef 0)
  %35 = add i32 %1, 8
  %36 = load i32, ptr @hf_fmp_uid, align 4
  %37 = tail call ptr @proto_tree_add_item(ptr noundef %18, i32 noundef %36, ptr noundef %0, i32 noundef %35, i32 noundef 2, i32 noundef 0)
  %38 = add i32 %1, 10
  br label %dissect_fmp_genString.exit

39:                                               ; preds = %get_fileHandleSrc_size.exit
  %40 = load i32, ptr @hf_fmp_fmpFHandle, align 4
  %41 = tail call i32 @dissect_rpc_string(ptr noundef %0, ptr noundef %18, i32 noundef %40, i32 noundef %22, ptr noundef null)
  br label %dissect_fmp_genString.exit

42:                                               ; preds = %get_fileHandleSrc_size.exit
  %43 = load i32, ptr @hf_fmp_fsid, align 4
  %44 = tail call ptr @proto_tree_add_item(ptr noundef %18, i32 noundef %43, ptr noundef %0, i32 noundef %22, i32 noundef 4, i32 noundef 0)
  %45 = add i32 %1, 8
  br label %dissect_fmp_genString.exit

46:                                               ; preds = %get_fileHandleSrc_size.exit
  %47 = load i32, ptr @hf_fmp_encoding_mode, align 4
  %48 = tail call ptr @proto_tree_add_item(ptr noundef %18, i32 noundef %47, ptr noundef %0, i32 noundef %22, i32 noundef 4, i32 noundef 0)
  %49 = add i32 %1, 8
  %50 = tail call i32 @tvb_get_ntohl(ptr noundef %0, i32 noundef %49)
  %51 = tail call ptr @try_val_to_str(i32 noundef %50, ptr noundef nonnull @fmp_encoding_mode_vals)
  %52 = icmp eq ptr %51, null
  br i1 %52, label %dissect_fmp_genString.exit, label %53

53:                                               ; preds = %46
  %54 = load i32, ptr @hf_fmp_path, align 4
  %55 = tail call i32 @dissect_rpc_string(ptr noundef %0, ptr noundef %18, i32 noundef %54, i32 noundef %49, ptr noundef null)
  br label %dissect_fmp_genString.exit

56:                                               ; preds = %get_fileHandleSrc_size.exit
  %57 = load i32, ptr @hf_fmp_encoding_mode, align 4
  %58 = tail call ptr @proto_tree_add_item(ptr noundef %18, i32 noundef %57, ptr noundef %0, i32 noundef %22, i32 noundef 4, i32 noundef 0)
  %59 = add i32 %1, 8
  %60 = tail call i32 @tvb_get_ntohl(ptr noundef %0, i32 noundef %59)
  %61 = tail call ptr @try_val_to_str(i32 noundef %60, ptr noundef nonnull @fmp_encoding_mode_vals)
  %62 = icmp eq ptr %61, null
  br i1 %62, label %dissect_fmp_genString.exit, label %63

63:                                               ; preds = %56
  %64 = load i32, ptr @hf_fmp_path, align 4
  %65 = tail call i32 @dissect_rpc_string(ptr noundef %0, ptr noundef %18, i32 noundef %64, i32 noundef %59, ptr noundef null)
  br label %dissect_fmp_genString.exit

66:                                               ; preds = %get_fileHandleSrc_size.exit
  %67 = load i32, ptr @hf_fmp_fid, align 4
  %68 = tail call ptr @proto_tree_add_item(ptr noundef %18, i32 noundef %67, ptr noundef %0, i32 noundef %22, i32 noundef 2, i32 noundef 0)
  %69 = add i32 %1, 6
  %70 = load i32, ptr @hf_fmp_tid, align 4
  %71 = tail call ptr @proto_tree_add_item(ptr noundef %18, i32 noundef %70, ptr noundef %0, i32 noundef %69, i32 noundef 2, i32 noundef 0)
  %72 = add i32 %1, 8
  %73 = load i32, ptr @hf_fmp_uid, align 4
  %74 = tail call ptr @proto_tree_add_item(ptr noundef %18, i32 noundef %73, ptr noundef %0, i32 noundef %72, i32 noundef 2, i32 noundef 0)
  %75 = add i32 %1, 10
  %76 = load i32, ptr @hf_fmp_cifsport, align 4
  %77 = tail call ptr @proto_tree_add_item(ptr noundef %18, i32 noundef %76, ptr noundef %0, i32 noundef %75, i32 noundef 2, i32 noundef 0)
  %78 = add i32 %1, 12
  br label %dissect_fmp_genString.exit

79:                                               ; preds = %get_fileHandleSrc_size.exit
  %80 = load i32, ptr @hf_fmp_encoding_mode, align 4
  %81 = tail call ptr @proto_tree_add_item(ptr noundef %18, i32 noundef %80, ptr noundef %0, i32 noundef %22, i32 noundef 4, i32 noundef 0)
  %82 = add i32 %1, 8
  %83 = tail call i32 @tvb_get_ntohl(ptr noundef %0, i32 noundef %82)
  %84 = tail call ptr @try_val_to_str(i32 noundef %83, ptr noundef nonnull @fmp_encoding_mode_vals)
  %85 = icmp eq ptr %84, null
  br i1 %85, label %dissect_fmp_genString.exit, label %86

86:                                               ; preds = %79
  %87 = load i32, ptr @hf_fmp_path, align 4
  %88 = tail call i32 @dissect_rpc_string(ptr noundef %0, ptr noundef %18, i32 noundef %87, i32 noundef %82, ptr noundef null)
  br label %dissect_fmp_genString.exit

dissect_fmp_genString.exit:                       ; preds = %86, %79, %63, %56, %53, %46, %get_fileHandleSrc_size.exit, %66, %42, %39, %29, %26, %23
  %.0 = phi i32 [ %22, %get_fileHandleSrc_size.exit ], [ %78, %66 ], [ %45, %42 ], [ %41, %39 ], [ %38, %29 ], [ %28, %26 ], [ %25, %23 ], [ %55, %53 ], [ %49, %46 ], [ %65, %63 ], [ %59, %56 ], [ %88, %86 ], [ %82, %79 ]
  ret i32 %.0
}